target datalayout = "e-m:e-p270:32:32-p271:32:32-p272:64:64-i64:64-i128:128-f80:128-n8:16:32:64-S128"
target triple = "x86_64-pc-linux-gnu"

@H5R_init_g = global i8 0, align 1
@H5_libterm_g = external global i8, align 1
@.str = private unnamed_addr constant [100 x i8] c"generated/home/dtcxzyw/WorkSpace/Projects/compilers/llvm-opt-benchmark/bench/hdf5/hdf5/src/H5Rint.c\00", align 1
@H5E_REFERENCE_g = external global i64, align 8
@H5E_CANTSET_g = external global i64, align 8
@H5E_CANTDECODE_g = external global i64, align 8
@.str.31 = private unnamed_addr constant [25 x i8] c"Buffer size is too small\00", align 1
@H5E_CLOSEERROR_g = external global i64, align 8
@.str.37 = private unnamed_addr constant [28 x i8] c"unable to release dataspace\00", align 1
@.str.45 = private unnamed_addr constant [28 x i8] c"can't deserialize selection\00", align 1
@__func__.H5R__decode_region = private unnamed_addr constant [19 x i8] c"H5R__decode_region\00", align 1
@.str.50 = private unnamed_addr constant [36 x i8] c"can't set extent rank for selection\00", align 1
@.str.51 = private unnamed_addr constant [37 x i8] c"Ran off end of buffer while decoding\00", align 1

; Function Attrs: nounwind uwtable
define internal i32 @H5R__decode_region(ptr noundef %0, ptr noundef %1, ptr noundef %2) #0 {
  %4 = alloca ptr, align 8
  %5 = alloca ptr, align 8
  %6 = alloca ptr, align 8
  %7 = alloca ptr, align 8
  %8 = alloca ptr, align 8
  %9 = alloca i64, align 8
  %10 = alloca i32, align 4
  %11 = alloca ptr, align 8
  %12 = alloca i32, align 4
  %13 = alloca i8, align 1
  store ptr %0, ptr %4, align 8, !tbaa !24
  store ptr %1, ptr %5, align 8, !tbaa !26
  store ptr %2, ptr %6, align 8, !tbaa !44
  call void @llvm.lifetime.start.p0(i64 8, ptr %7) #9
  %14 = load ptr, ptr %4, align 8, !tbaa !24
  store ptr %14, ptr %7, align 8, !tbaa !24
  call void @llvm.lifetime.start.p0(i64 8, ptr %8) #9
  %15 = load ptr, ptr %7, align 8, !tbaa !24
  %16 = load ptr, ptr %5, align 8, !tbaa !26
  %17 = load i64, ptr %16, align 8, !tbaa !12
  %18 = getelementptr inbounds nuw i8, ptr %15, i64 %17
  %19 = getelementptr inbounds i8, ptr %18, i64 -1
  store ptr %19, ptr %8, align 8, !tbaa !24
  call void @llvm.lifetime.start.p0(i64 8, ptr %9) #9
  store i64 0, ptr %9, align 8, !tbaa !12
  call void @llvm.lifetime.start.p0(i64 4, ptr %10) #9
  call void @llvm.lifetime.start.p0(i64 8, ptr %11) #9
  store ptr null, ptr %11, align 8, !tbaa !28
  call void @llvm.lifetime.start.p0(i64 4, ptr %12) #9
  store i32 0, ptr %12, align 4, !tbaa !16
  call void @llvm.lifetime.start.p0(i64 1, ptr %13) #9
  store i8 0, ptr %13, align 1, !tbaa !3
  %20 = load i8, ptr @H5R_init_g, align 1, !tbaa !3, !range !7, !noundef !8
  %21 = trunc i8 %20 to i1
  br i1 %21, label %26, label %22

22:                                               ; preds = %3
  %23 = load i8, ptr @H5_libterm_g, align 1, !tbaa !3, !range !7, !noundef !8
  %24 = trunc i8 %23 to i1
  %25 = xor i1 %24, true
  br label %26

26:                                               ; preds = %22, %3
  %27 = phi i1 [ true, %3 ], [ %25, %22 ]
  %28 = xor i1 %27, true
  %29 = xor i1 %28, true
  %30 = zext i1 %29 to i32
  %31 = sext i32 %30 to i64
  %32 = call i64 @llvm.expect.i64(i64 %31, i64 1)
  %33 = icmp ne i64 %32, 0
  br i1 %33, label %34, label %292

34:                                               ; preds = %26
  %35 = load ptr, ptr %5, align 8, !tbaa !26
  %36 = load i64, ptr %35, align 8, !tbaa !12
  %37 = icmp ult i64 %36, 8
  br i1 %37, label %38, label %57

38:                                               ; preds = %34
  br label %39

39:                                               ; preds = %38
  br label %40

40:                                               ; preds = %39
  br label %41

41:                                               ; preds = %40
  %42 = load i64, ptr @H5E_REFERENCE_g, align 8, !tbaa !12
  %43 = load i64, ptr @H5E_CANTDECODE_g, align 8, !tbaa !12
  %44 = call i32 (ptr, ptr, i32, i64, i64, ptr, ...) @H5E_printf_stack(ptr noundef @.str, ptr noundef @__func__.H5R__decode_region, i32 noundef 1217, i64 noundef %42, i64 noundef %43, ptr noundef @.str.31)
  br label %45

45:                                               ; preds = %41
  br label %46

46:                                               ; preds = %45
  store i8 1, ptr %13, align 1, !tbaa !3
  %47 = load i8, ptr %13, align 1, !tbaa !3, !range !7, !noundef !8
  %48 = trunc i8 %47 to i1
  %49 = zext i1 %48 to i8
  store i8 %49, ptr %13, align 1, !tbaa !3
  br label %50

50:                                               ; preds = %46
  br label %51

51:                                               ; preds = %50
  br label %52

52:                                               ; preds = %51
  store i32 -1, ptr %12, align 4, !tbaa !16
  br label %264

53:                                               ; No predecessors!
  br label %54

54:                                               ; preds = %53
  br label %55

55:                                               ; preds = %54
  br label %56

56:                                               ; preds = %55
  br label %57

57:                                               ; preds = %56, %34
  br label %58

58:                                               ; preds = %57
  %59 = load ptr, ptr %7, align 8, !tbaa !24
  %60 = load i8, ptr %59, align 1, !tbaa !18
  %61 = zext i8 %60 to i32
  %62 = and i32 %61, 255
  %63 = zext i32 %62 to i64
  store i64 %63, ptr %9, align 8, !tbaa !12
  %64 = load ptr, ptr %7, align 8, !tbaa !24
  %65 = getelementptr inbounds nuw i8, ptr %64, i32 1
  store ptr %65, ptr %7, align 8, !tbaa !24
  %66 = load ptr, ptr %7, align 8, !tbaa !24
  %67 = load i8, ptr %66, align 1, !tbaa !18
  %68 = zext i8 %67 to i32
  %69 = and i32 %68, 255
  %70 = shl i32 %69, 8
  %71 = zext i32 %70 to i64
  %72 = load i64, ptr %9, align 8, !tbaa !12
  %73 = or i64 %72, %71
  store i64 %73, ptr %9, align 8, !tbaa !12
  %74 = load ptr, ptr %7, align 8, !tbaa !24
  %75 = getelementptr inbounds nuw i8, ptr %74, i32 1
  store ptr %75, ptr %7, align 8, !tbaa !24
  %76 = load ptr, ptr %7, align 8, !tbaa !24
  %77 = load i8, ptr %76, align 1, !tbaa !18
  %78 = zext i8 %77 to i32
  %79 = and i32 %78, 255
  %80 = shl i32 %79, 16
  %81 = zext i32 %80 to i64
  %82 = load i64, ptr %9, align 8, !tbaa !12
  %83 = or i64 %82, %81
  store i64 %83, ptr %9, align 8, !tbaa !12
  %84 = load ptr, ptr %7, align 8, !tbaa !24
  %85 = getelementptr inbounds nuw i8, ptr %84, i32 1
  store ptr %85, ptr %7, align 8, !tbaa !24
  %86 = load ptr, ptr %7, align 8, !tbaa !24
  %87 = load i8, ptr %86, align 1, !tbaa !18
  %88 = zext i8 %87 to i32
  %89 = and i32 %88, 255
  %90 = shl i32 %89, 24
  %91 = zext i32 %90 to i64
  %92 = load i64, ptr %9, align 8, !tbaa !12
  %93 = or i64 %92, %91
  store i64 %93, ptr %9, align 8, !tbaa !12
  %94 = load ptr, ptr %7, align 8, !tbaa !24
  %95 = getelementptr inbounds nuw i8, ptr %94, i32 1
  store ptr %95, ptr %7, align 8, !tbaa !24
  br label %96

96:                                               ; preds = %58
  br label %97

97:                                               ; preds = %96
  %98 = load i64, ptr %9, align 8, !tbaa !12
  %99 = add i64 %98, 4
  store i64 %99, ptr %9, align 8, !tbaa !12
  br label %100

100:                                              ; preds = %97
  %101 = load ptr, ptr %7, align 8, !tbaa !24
  %102 = load i8, ptr %101, align 1, !tbaa !18
  %103 = zext i8 %102 to i32
  %104 = and i32 %103, 255
  store i32 %104, ptr %10, align 4, !tbaa !16
  %105 = load ptr, ptr %7, align 8, !tbaa !24
  %106 = getelementptr inbounds nuw i8, ptr %105, i32 1
  store ptr %106, ptr %7, align 8, !tbaa !24
  %107 = load ptr, ptr %7, align 8, !tbaa !24
  %108 = load i8, ptr %107, align 1, !tbaa !18
  %109 = zext i8 %108 to i32
  %110 = and i32 %109, 255
  %111 = shl i32 %110, 8
  %112 = load i32, ptr %10, align 4, !tbaa !16
  %113 = or i32 %112, %111
  store i32 %113, ptr %10, align 4, !tbaa !16
  %114 = load ptr, ptr %7, align 8, !tbaa !24
  %115 = getelementptr inbounds nuw i8, ptr %114, i32 1
  store ptr %115, ptr %7, align 8, !tbaa !24
  %116 = load ptr, ptr %7, align 8, !tbaa !24
  %117 = load i8, ptr %116, align 1, !tbaa !18
  %118 = zext i8 %117 to i32
  %119 = and i32 %118, 255
  %120 = shl i32 %119, 16
  %121 = load i32, ptr %10, align 4, !tbaa !16
  %122 = or i32 %121, %120
  store i32 %122, ptr %10, align 4, !tbaa !16
  %123 = load ptr, ptr %7, align 8, !tbaa !24
  %124 = getelementptr inbounds nuw i8, ptr %123, i32 1
  store ptr %124, ptr %7, align 8, !tbaa !24
  %125 = load ptr, ptr %7, align 8, !tbaa !24
  %126 = load i8, ptr %125, align 1, !tbaa !18
  %127 = zext i8 %126 to i32
  %128 = and i32 %127, 255
  %129 = shl i32 %128, 24
  %130 = load i32, ptr %10, align 4, !tbaa !16
  %131 = or i32 %130, %129
  store i32 %131, ptr %10, align 4, !tbaa !16
  %132 = load ptr, ptr %7, align 8, !tbaa !24
  %133 = getelementptr inbounds nuw i8, ptr %132, i32 1
  store ptr %133, ptr %7, align 8, !tbaa !24
  br label %134

134:                                              ; preds = %100
  br label %135

135:                                              ; preds = %134
  %136 = load i64, ptr %9, align 8, !tbaa !12
  %137 = add i64 %136, 4
  store i64 %137, ptr %9, align 8, !tbaa !12
  %138 = load ptr, ptr %5, align 8, !tbaa !26
  %139 = load i64, ptr %138, align 8, !tbaa !12
  %140 = load i64, ptr %9, align 8, !tbaa !12
  %141 = icmp ult i64 %139, %140
  br i1 %141, label %142, label %161

142:                                              ; preds = %135
  br label %143

143:                                              ; preds = %142
  br label %144

144:                                              ; preds = %143
  br label %145

145:                                              ; preds = %144
  %146 = load i64, ptr @H5E_REFERENCE_g, align 8, !tbaa !12
  %147 = load i64, ptr @H5E_CANTDECODE_g, align 8, !tbaa !12
  %148 = call i32 (ptr, ptr, i32, i64, i64, ptr, ...) @H5E_printf_stack(ptr noundef @.str, ptr noundef @__func__.H5R__decode_region, i32 noundef 1229, i64 noundef %146, i64 noundef %147, ptr noundef @.str.31)
  br label %149

149:                                              ; preds = %145
  br label %150

150:                                              ; preds = %149
  store i8 1, ptr %13, align 1, !tbaa !3
  %151 = load i8, ptr %13, align 1, !tbaa !3, !range !7, !noundef !8
  %152 = trunc i8 %151 to i1
  %153 = zext i1 %152 to i8
  store i8 %153, ptr %13, align 1, !tbaa !3
  br label %154

154:                                              ; preds = %150
  br label %155

155:                                              ; preds = %154
  br label %156

156:                                              ; preds = %155
  store i32 -1, ptr %12, align 4, !tbaa !16
  br label %264

157:                                              ; No predecessors!
  br label %158

158:                                              ; preds = %157
  br label %159

159:                                              ; preds = %158
  br label %160

160:                                              ; preds = %159
  br label %161

161:                                              ; preds = %160, %135
  %162 = call ptr @H5S_create(i32 noundef 1)
  store ptr %162, ptr %11, align 8, !tbaa !28
  %163 = icmp eq ptr null, %162
  br i1 %163, label %164, label %183

164:                                              ; preds = %161
  br label %165

165:                                              ; preds = %164
  br label %166

166:                                              ; preds = %165
  br label %167

167:                                              ; preds = %166
  %168 = load i64, ptr @H5E_REFERENCE_g, align 8, !tbaa !12
  %169 = load i64, ptr @H5E_CANTDECODE_g, align 8, !tbaa !12
  %170 = call i32 (ptr, ptr, i32, i64, i64, ptr, ...) @H5E_printf_stack(ptr noundef @.str, ptr noundef @__func__.H5R__decode_region, i32 noundef 1233, i64 noundef %168, i64 noundef %169, ptr noundef @.str.31)
  br label %171

171:                                              ; preds = %167
  br label %172

172:                                              ; preds = %171
  store i8 1, ptr %13, align 1, !tbaa !3
  %173 = load i8, ptr %13, align 1, !tbaa !3, !range !7, !noundef !8
  %174 = trunc i8 %173 to i1
  %175 = zext i1 %174 to i8
  store i8 %175, ptr %13, align 1, !tbaa !3
  br label %176

176:                                              ; preds = %172
  br label %177

177:                                              ; preds = %176
  br label %178

178:                                              ; preds = %177
  store i32 -1, ptr %12, align 4, !tbaa !16
  br label %264

179:                                              ; No predecessors!
  br label %180

180:                                              ; preds = %179
  br label %181

181:                                              ; preds = %180
  br label %182

182:                                              ; preds = %181
  br label %183

183:                                              ; preds = %182, %161
  %184 = load ptr, ptr %11, align 8, !tbaa !28
  %185 = load i32, ptr %10, align 4, !tbaa !16
  %186 = call i32 @H5S_set_extent_simple(ptr noundef %184, i32 noundef %185, ptr noundef null, ptr noundef null)
  %187 = icmp slt i32 %186, 0
  br i1 %187, label %188, label %207

188:                                              ; preds = %183
  br label %189

189:                                              ; preds = %188
  br label %190

190:                                              ; preds = %189
  br label %191

191:                                              ; preds = %190
  %192 = load i64, ptr @H5E_REFERENCE_g, align 8, !tbaa !12
  %193 = load i64, ptr @H5E_CANTSET_g, align 8, !tbaa !12
  %194 = call i32 (ptr, ptr, i32, i64, i64, ptr, ...) @H5E_printf_stack(ptr noundef @.str, ptr noundef @__func__.H5R__decode_region, i32 noundef 1235, i64 noundef %192, i64 noundef %193, ptr noundef @.str.50)
  br label %195

195:                                              ; preds = %191
  br label %196

196:                                              ; preds = %195
  store i8 1, ptr %13, align 1, !tbaa !3
  %197 = load i8, ptr %13, align 1, !tbaa !3, !range !7, !noundef !8
  %198 = trunc i8 %197 to i1
  %199 = zext i1 %198 to i8
  store i8 %199, ptr %13, align 1, !tbaa !3
  br label %200

200:                                              ; preds = %196
  br label %201

201:                                              ; preds = %200
  br label %202

202:                                              ; preds = %201
  store i32 -1, ptr %12, align 4, !tbaa !16
  br label %264

203:                                              ; No predecessors!
  br label %204

204:                                              ; preds = %203
  br label %205

205:                                              ; preds = %204
  br label %206

206:                                              ; preds = %205
  br label %207

207:                                              ; preds = %206, %183
  %208 = load ptr, ptr %7, align 8, !tbaa !24
  %209 = getelementptr inbounds i8, ptr %208, i64 -1
  %210 = load ptr, ptr %8, align 8, !tbaa !24
  %211 = icmp ugt ptr %209, %210
  br i1 %211, label %212, label %231

212:                                              ; preds = %207
  br label %213

213:                                              ; preds = %212
  br label %214

214:                                              ; preds = %213
  br label %215

215:                                              ; preds = %214
  %216 = load i64, ptr @H5E_REFERENCE_g, align 8, !tbaa !12
  %217 = load i64, ptr @H5E_CANTDECODE_g, align 8, !tbaa !12
  %218 = call i32 (ptr, ptr, i32, i64, i64, ptr, ...) @H5E_printf_stack(ptr noundef @.str, ptr noundef @__func__.H5R__decode_region, i32 noundef 1238, i64 noundef %216, i64 noundef %217, ptr noundef @.str.51)
  br label %219

219:                                              ; preds = %215
  br label %220

220:                                              ; preds = %219
  store i8 1, ptr %13, align 1, !tbaa !3
  %221 = load i8, ptr %13, align 1, !tbaa !3, !range !7, !noundef !8
  %222 = trunc i8 %221 to i1
  %223 = zext i1 %222 to i8
  store i8 %223, ptr %13, align 1, !tbaa !3
  br label %224

224:                                              ; preds = %220
  br label %225

225:                                              ; preds = %224
  br label %226

226:                                              ; preds = %225
  store i32 -1, ptr %12, align 4, !tbaa !16
  br label %264

227:                                              ; No predecessors!
  br label %228

228:                                              ; preds = %227
  br label %229

229:                                              ; preds = %228
  br label %230

230:                                              ; preds = %229
  br label %231

231:                                              ; preds = %230, %207
  %232 = load ptr, ptr %8, align 8, !tbaa !24
  %233 = load ptr, ptr %7, align 8, !tbaa !24
  %234 = ptrtoint ptr %232 to i64
  %235 = ptrtoint ptr %233 to i64
  %236 = sub i64 %234, %235
  %237 = add nsw i64 %236, 1
  %238 = call i32 @H5S_select_deserialize(ptr noundef %11, ptr noundef %7, i64 noundef %237)
  %239 = icmp slt i32 %238, 0
  br i1 %239, label %240, label %259

240:                                              ; preds = %231
  br label %241

241:                                              ; preds = %240
  br label %242

242:                                              ; preds = %241
  br label %243

243:                                              ; preds = %242
  %244 = load i64, ptr @H5E_REFERENCE_g, align 8, !tbaa !12
  %245 = load i64, ptr @H5E_CANTDECODE_g, align 8, !tbaa !12
  %246 = call i32 (ptr, ptr, i32, i64, i64, ptr, ...) @H5E_printf_stack(ptr noundef @.str, ptr noundef @__func__.H5R__decode_region, i32 noundef 1241, i64 noundef %244, i64 noundef %245, ptr noundef @.str.45)
  br label %247

247:                                              ; preds = %243
  br label %248

248:                                              ; preds = %247
  store i8 1, ptr %13, align 1, !tbaa !3
  %249 = load i8, ptr %13, align 1, !tbaa !3, !range !7, !noundef !8
  %250 = trunc i8 %249 to i1
  %251 = zext i1 %250 to i8
  store i8 %251, ptr %13, align 1, !tbaa !3
  br label %252

252:                                              ; preds = %248
  br label %253

253:                                              ; preds = %252
  br label %254

254:                                              ; preds = %253
  store i32 -1, ptr %12, align 4, !tbaa !16
  br label %264

255:                                              ; No predecessors!
  br label %256

256:                                              ; preds = %255
  br label %257

257:                                              ; preds = %256
  br label %258

258:                                              ; preds = %257
  br label %259

259:                                              ; preds = %258, %231
  %260 = load i64, ptr %9, align 8, !tbaa !12
  %261 = load ptr, ptr %5, align 8, !tbaa !26
  store i64 %260, ptr %261, align 8, !tbaa !12
  %262 = load ptr, ptr %11, align 8, !tbaa !28
  %263 = load ptr, ptr %6, align 8, !tbaa !44
  store ptr %262, ptr %263, align 8, !tbaa !28
  br label %264

264:                                              ; preds = %259, %254, %226, %202, %178, %156, %52
  %265 = load i32, ptr %12, align 4, !tbaa !16
  %266 = icmp slt i32 %265, 0
  br i1 %266, label %267, label %291

267:                                              ; preds = %264
  %268 = load ptr, ptr %11, align 8, !tbaa !28
  %269 = icmp ne ptr %268, null
  br i1 %269, label %270, label %290

270:                                              ; preds = %267
  %271 = load ptr, ptr %11, align 8, !tbaa !28
  %272 = call i32 @H5S_close(ptr noundef %271)
  %273 = icmp slt i32 %272, 0
  br i1 %273, label %274, label %290

274:                                              ; preds = %270
  br label %275

275:                                              ; preds = %274
  br label %276

276:                                              ; preds = %275
  br label %277

277:                                              ; preds = %276
  %278 = load i64, ptr @H5E_REFERENCE_g, align 8, !tbaa !12
  %279 = load i64, ptr @H5E_CLOSEERROR_g, align 8, !tbaa !12
  %280 = call i32 (ptr, ptr, i32, i64, i64, ptr, ...) @H5E_printf_stack(ptr noundef @.str, ptr noundef @__func__.H5R__decode_region, i32 noundef 1249, i64 noundef %278, i64 noundef %279, ptr noundef @.str.37)
  br label %281

281:                                              ; preds = %277
  br label %282

282:                                              ; preds = %281
  store i8 1, ptr %13, align 1, !tbaa !3
  %283 = load i8, ptr %13, align 1, !tbaa !3, !range !7, !noundef !8
  %284 = trunc i8 %283 to i1
  %285 = zext i1 %284 to i8
  store i8 %285, ptr %13, align 1, !tbaa !3
  br label %286

286:                                              ; preds = %282
  br label %287

287:                                              ; preds = %286
  store i32 -1, ptr %12, align 4, !tbaa !16
  br label %288

288:                                              ; preds = %287
  br label %289

289:                                              ; preds = %288
  br label %290

290:                                              ; preds = %289, %270, %267
  br label %291

291:                                              ; preds = %290, %264
  br label %292

292:                                              ; preds = %291, %26
  %293 = load i32, ptr %12, align 4, !tbaa !16
  call void @llvm.lifetime.end.p0(i64 1, ptr %13) #9
  call void @llvm.lifetime.end.p0(i64 4, ptr %12) #9
  call void @llvm.lifetime.end.p0(i64 8, ptr %11) #9
  call void @llvm.lifetime.end.p0(i64 4, ptr %10) #9
  call void @llvm.lifetime.end.p0(i64 8, ptr %9) #9
  call void @llvm.lifetime.end.p0(i64 8, ptr %8) #9
  call void @llvm.lifetime.end.p0(i64 8, ptr %7) #9
  ret i32 %293
}