; Function Attrs: nounwind uwtable
define internal fastcc range(i32 -1, 1) i32 @H5R__decode_region(ptr noundef %0, ptr noundef nonnull captures(none) %1, ptr noundef writeonly captures(none) %2) unnamed_addr #1 {
  %4 = alloca ptr, align 8
  %5 = alloca ptr, align 8
  call void @llvm.lifetime.start.p0(i64 8, ptr nonnull %4) #15
  %6 = load i64, ptr %1, align 8, !tbaa !17
  %7 = getelementptr inbounds nuw i8, ptr %0, i64 %6
  %8 = getelementptr inbounds i8, ptr %7, i64 -1
  call void @llvm.lifetime.start.p0(i64 8, ptr nonnull %5) #15
  %9 = load i8, ptr @H5R_init_g, align 1, !tbaa !3, !range !7, !noundef !8
  %10 = trunc nuw i8 %9 to i1
  %11 = load i8, ptr @H5_libterm_g, align 1, !range !7
  %12 = trunc nuw i8 %11 to i1
  %13 = xor i1 %12, true
  %14 = select i1 %10, i1 true, i1 %13
  br i1 %14, label %15, label %.thread34, !prof !9

15:                                               ; preds = %3
  %16 = icmp ult i64 %6, 8
  br i1 %16, label %17, label %21

17:                                               ; preds = %15
  %18 = load i64, ptr @H5E_REFERENCE_g, align 8, !tbaa !17
  %19 = load i64, ptr @H5E_CANTDECODE_g, align 8, !tbaa !17
  %20 = tail call i32 (ptr, ptr, i32, i64, i64, ptr, ...) @H5E_printf_stack(ptr noundef nonnull @.str, ptr noundef nonnull @__func__.H5R__decode_region, i32 noundef 1217, i64 noundef %18, i64 noundef %19, ptr noundef nonnull @.str.31) #15
  br label %.thread34

21:                                               ; preds = %15
  %22 = load i32, ptr %0, align 1
  %23 = zext i32 %22 to i64
  %24 = getelementptr inbounds nuw i8, ptr %0, i64 4
  %25 = load i32, ptr %24, align 1
  %26 = getelementptr inbounds nuw i8, ptr %0, i64 8
  store ptr %26, ptr %4, align 8, !tbaa !19
  %27 = add nuw nsw i64 %23, 8
  %28 = icmp ult i64 %6, %27
  br i1 %28, label %29, label %33

29:                                               ; preds = %21
  %30 = load i64, ptr @H5E_REFERENCE_g, align 8, !tbaa !17
  %31 = load i64, ptr @H5E_CANTDECODE_g, align 8, !tbaa !17
  %32 = tail call i32 (ptr, ptr, i32, i64, i64, ptr, ...) @H5E_printf_stack(ptr noundef nonnull @.str, ptr noundef nonnull @__func__.H5R__decode_region, i32 noundef 1229, i64 noundef %30, i64 noundef %31, ptr noundef nonnull @.str.31) #15
  br label %.thread34

33:                                               ; preds = %21
  %34 = tail call ptr @H5S_create(i32 noundef 1) #15
  store ptr %34, ptr %5, align 8, !tbaa !29
  %35 = icmp eq ptr %34, null
  br i1 %35, label %36, label %40

36:                                               ; preds = %33
  %37 = load i64, ptr @H5E_REFERENCE_g, align 8, !tbaa !17
  %38 = load i64, ptr @H5E_CANTDECODE_g, align 8, !tbaa !17
  %39 = tail call i32 (ptr, ptr, i32, i64, i64, ptr, ...) @H5E_printf_stack(ptr noundef nonnull @.str, ptr noundef nonnull @__func__.H5R__decode_region, i32 noundef 1233, i64 noundef %37, i64 noundef %38, ptr noundef nonnull @.str.31) #15
  br label %.thread34

40:                                               ; preds = %33
  %41 = tail call i32 @H5S_set_extent_simple(ptr noundef nonnull %34, i32 noundef %25, ptr noundef null, ptr noundef null) #15
  %42 = icmp slt i32 %41, 0
  br i1 %42, label %.thread36, label %46

.thread36:                                        ; preds = %40
  %43 = load i64, ptr @H5E_REFERENCE_g, align 8, !tbaa !17
  %44 = load i64, ptr @H5E_CANTSET_g, align 8, !tbaa !17
  %45 = tail call i32 (ptr, ptr, i32, i64, i64, ptr, ...) @H5E_printf_stack(ptr noundef nonnull @.str, ptr noundef nonnull @__func__.H5R__decode_region, i32 noundef 1235, i64 noundef %43, i64 noundef %44, ptr noundef nonnull @.str.50) #15
  br label %58

46:                                               ; preds = %40
  %47 = ptrtoint ptr %8 to i64
  %48 = ptrtoint ptr %26 to i64
  %49 = add i64 %47, 1
  %50 = sub i64 %49, %48
  %51 = call i32 @H5S_select_deserialize(ptr noundef nonnull %5, ptr noundef nonnull %4, i64 noundef %50) #15
  %52 = icmp slt i32 %51, 0
  br i1 %52, label %54, label %.thread

.thread:                                          ; preds = %46
  store i64 %27, ptr %1, align 8, !tbaa !17
  %53 = load ptr, ptr %5, align 8, !tbaa !29
  store ptr %53, ptr %2, align 8, !tbaa !29
  br label %.thread34

54:                                               ; preds = %46
  %55 = load i64, ptr @H5E_REFERENCE_g, align 8, !tbaa !17
  %56 = load i64, ptr @H5E_CANTDECODE_g, align 8, !tbaa !17
  %57 = call i32 (ptr, ptr, i32, i64, i64, ptr, ...) @H5E_printf_stack(ptr noundef nonnull @.str, ptr noundef nonnull @__func__.H5R__decode_region, i32 noundef 1241, i64 noundef %55, i64 noundef %56, ptr noundef nonnull @.str.45) #15
  %.pre = load ptr, ptr %5, align 8
  %.not = icmp eq ptr %.pre, null
  br i1 %.not, label %.thread34, label %58

58:                                               ; preds = %.thread36, %54
  %59 = phi ptr [ %34, %.thread36 ], [ %.pre, %54 ]
  %60 = call i32 @H5S_close(ptr noundef nonnull %59) #15
  %61 = icmp slt i32 %60, 0
  br i1 %61, label %62, label %.thread34

62:                                               ; preds = %58
  %63 = load i64, ptr @H5E_REFERENCE_g, align 8, !tbaa !17
  %64 = load i64, ptr @H5E_CLOSEERROR_g, align 8, !tbaa !17
  %65 = call i32 (ptr, ptr, i32, i64, i64, ptr, ...) @H5E_printf_stack(ptr noundef nonnull @.str, ptr noundef nonnull @__func__.H5R__decode_region, i32 noundef 1249, i64 noundef %63, i64 noundef %64, ptr noundef nonnull @.str.37) #15
  br label %.thread34

.thread34:                                        ; preds = %17, %29, %36, %.thread, %54, %62, %58, %3
  %.0 = phi i32 [ -1, %62 ], [ -1, %58 ], [ -1, %54 ], [ 0, %3 ], [ 0, %.thread ], [ -1, %36 ], [ -1, %29 ], [ -1, %17 ]
  call void @llvm.lifetime.end.p0(i64 8, ptr nonnull %5) #15
  call void @llvm.lifetime.end.p0(i64 8, ptr nonnull %4) #15
  ret i32 %.0
}